target datalayout = "e-m:e-p270:32:32-p271:32:32-p272:64:64-i64:64-i128:128-f80:128-n8:16:32:64-S128"
target triple = "x86_64-pc-linux-gnu"

%struct.PKCS12_st = type { ptr, ptr, ptr }
%struct.PKCS12_MAC_DATA_st = type { ptr, ptr, ptr }

; Function Attrs: nounwind uwtable
define void @PKCS12_get0_mac(ptr noundef %0, ptr noundef %1, ptr noundef %2, ptr noundef %3, ptr noundef %4) #0 {
  %6 = alloca ptr, align 8
  %7 = alloca ptr, align 8
  %8 = alloca ptr, align 8
  %9 = alloca ptr, align 8
  %10 = alloca ptr, align 8
  store ptr %0, ptr %6, align 8, !tbaa !13
  store ptr %1, ptr %7, align 8, !tbaa !15
  store ptr %2, ptr %8, align 8, !tbaa !13
  store ptr %3, ptr %9, align 8, !tbaa !13
  store ptr %4, ptr %10, align 8, !tbaa !3
  %11 = load ptr, ptr %10, align 8, !tbaa !3
  %12 = getelementptr inbounds nuw %struct.PKCS12_st, ptr %11, i32 0, i32 1
  %13 = load ptr, ptr %12, align 8, !tbaa !8
  %14 = icmp ne ptr %13, null
  br i1 %14, label %15, label %43

15:                                               ; preds = %5
  %16 = load ptr, ptr %10, align 8, !tbaa !3
  %17 = getelementptr inbounds nuw %struct.PKCS12_st, ptr %16, i32 0, i32 1
  %18 = load ptr, ptr %17, align 8, !tbaa !8
  %19 = getelementptr inbounds nuw %struct.PKCS12_MAC_DATA_st, ptr %18, i32 0, i32 0
  %20 = load ptr, ptr %19, align 8, !tbaa !17
  %21 = load ptr, ptr %7, align 8, !tbaa !15
  %22 = load ptr, ptr %6, align 8, !tbaa !13
  call void @X509_SIG_get0(ptr noundef %20, ptr noundef %21, ptr noundef %22)
  %23 = load ptr, ptr %8, align 8, !tbaa !13
  %24 = icmp ne ptr %23, null
  br i1 %24, label %25, label %32

25:                                               ; preds = %15
  %26 = load ptr, ptr %10, align 8, !tbaa !3
  %27 = getelementptr inbounds nuw %struct.PKCS12_st, ptr %26, i32 0, i32 1
  %28 = load ptr, ptr %27, align 8, !tbaa !8
  %29 = getelementptr inbounds nuw %struct.PKCS12_MAC_DATA_st, ptr %28, i32 0, i32 1
  %30 = load ptr, ptr %29, align 8, !tbaa !20
  %31 = load ptr, ptr %8, align 8, !tbaa !13
  store ptr %30, ptr %31, align 8, !tbaa !21
  br label %32

32:                                               ; preds = %25, %15
  %33 = load ptr, ptr %9, align 8, !tbaa !13
  %34 = icmp ne ptr %33, null
  br i1 %34, label %35, label %42

35:                                               ; preds = %32
  %36 = load ptr, ptr %10, align 8, !tbaa !3
  %37 = getelementptr inbounds nuw %struct.PKCS12_st, ptr %36, i32 0, i32 1
  %38 = load ptr, ptr %37, align 8, !tbaa !8
  %39 = getelementptr inbounds nuw %struct.PKCS12_MAC_DATA_st, ptr %38, i32 0, i32 2
  %40 = load ptr, ptr %39, align 8, !tbaa !22
  %41 = load ptr, ptr %9, align 8, !tbaa !13
  store ptr %40, ptr %41, align 8, !tbaa !21
  br label %42

42:                                               ; preds = %35, %32
  br label %64

43:                                               ; preds = %5
  %44 = load ptr, ptr %6, align 8, !tbaa !13
  %45 = icmp ne ptr %44, null
  br i1 %45, label %46, label %48

46:                                               ; preds = %43
  %47 = load ptr, ptr %6, align 8, !tbaa !13
  store ptr null, ptr %47, align 8, !tbaa !21
  br label %48

48:                                               ; preds = %46, %43
  %49 = load ptr, ptr %7, align 8, !tbaa !15
  %50 = icmp ne ptr %49, null
  br i1 %50, label %51, label %53

51:                                               ; preds = %48
  %52 = load ptr, ptr %7, align 8, !tbaa !15
  store ptr null, ptr %52, align 8, !tbaa !23
  br label %53

53:                                               ; preds = %51, %48
  %54 = load ptr, ptr %8, align 8, !tbaa !13
  %55 = icmp ne ptr %54, null
  br i1 %55, label %56, label %58

56:                                               ; preds = %53
  %57 = load ptr, ptr %8, align 8, !tbaa !13
  store ptr null, ptr %57, align 8, !tbaa !21
  br label %58

58:                                               ; preds = %56, %53
  %59 = load ptr, ptr %9, align 8, !tbaa !13
  %60 = icmp ne ptr %59, null
  br i1 %60, label %61, label %63

61:                                               ; preds = %58
  %62 = load ptr, ptr %9, align 8, !tbaa !13
  store ptr null, ptr %62, align 8, !tbaa !21
  br label %63

63:                                               ; preds = %61, %58
  br label %64

64:                                               ; preds = %63, %42
  ret void
}