; Function Attrs: nounwind uwtable
define void @PKCS12_get0_mac(ptr noundef %0, ptr noundef %1, ptr noundef writeonly captures(address_is_null) %2, ptr noundef writeonly captures(address_is_null) %3, ptr noundef readonly captures(none) %4) local_unnamed_addr #1 {
  %6 = getelementptr inbounds nuw i8, ptr %4, i64 8
  %7 = load ptr, ptr %6, align 8, !tbaa !3
  %.not = icmp eq ptr %7, null
  br i1 %.not, label %19, label %8

8:                                                ; preds = %5
  %9 = load ptr, ptr %7, align 8, !tbaa !11
  tail call void @X509_SIG_get0(ptr noundef %9, ptr noundef %1, ptr noundef %0) #5
  %.not27 = icmp eq ptr %2, null
  br i1 %.not27, label %14, label %10

10:                                               ; preds = %8
  %11 = load ptr, ptr %6, align 8, !tbaa !3
  %12 = getelementptr inbounds nuw i8, ptr %11, i64 8
  %13 = load ptr, ptr %12, align 8, !tbaa !14
  store ptr %13, ptr %2, align 8, !tbaa !15
  br label %14

14:                                               ; preds = %10, %8
  %.not28 = icmp eq ptr %3, null
  br i1 %.not28, label %26, label %15

15:                                               ; preds = %14
  %16 = load ptr, ptr %6, align 8, !tbaa !3
  %17 = getelementptr inbounds nuw i8, ptr %16, i64 16
  %18 = load ptr, ptr %17, align 8, !tbaa !16
  br label %.sink.split

19:                                               ; preds = %5
  %.not23 = icmp eq ptr %0, null
  br i1 %.not23, label %21, label %20

20:                                               ; preds = %19
  store ptr null, ptr %0, align 8, !tbaa !15
  br label %21

21:                                               ; preds = %20, %19
  %.not24 = icmp eq ptr %1, null
  br i1 %.not24, label %23, label %22

22:                                               ; preds = %21
  store ptr null, ptr %1, align 8, !tbaa !17
  br label %23

23:                                               ; preds = %22, %21
  %.not25 = icmp eq ptr %2, null
  br i1 %.not25, label %25, label %24

24:                                               ; preds = %23
  store ptr null, ptr %2, align 8, !tbaa !15
  br label %25

25:                                               ; preds = %24, %23
  %.not26 = icmp eq ptr %3, null
  br i1 %.not26, label %26, label %.sink.split

.sink.split:                                      ; preds = %25, %15
  %.sink = phi ptr [ %18, %15 ], [ null, %25 ]
  store ptr %.sink, ptr %3, align 8, !tbaa !15
  br label %26

26:                                               ; preds = %.sink.split, %25, %14
  ret void
}